target datalayout = "e-m:e-p270:32:32-p271:32:32-p272:64:64-i64:64-i128:128-f80:128-n8:16:32:64-S128"
target triple = "x86_64-pc-linux-gnu"

%struct.strvec = type { ptr, i64, i64 }
%struct.credential_capability = type { i8, [3 x i8] }
%struct.credential = type { %struct.string_list, %struct.strvec, %struct.strvec, %struct.strvec, i16, [2 x i8], %struct.credential_capability, %struct.credential_capability, ptr, ptr, ptr, ptr, ptr, ptr, ptr, i64, ptr }
%struct.string_list = type { ptr, i64, i64, i8, ptr }

@.str.28 = private unnamed_addr constant [13 x i8] c"credential.c\00", align 1
@.str.29 = private unnamed_addr constant [35 x i8] c"credential value for %s is missing\00", align 1
@.str.30 = private unnamed_addr constant [41 x i8] c"credential value for %s contains newline\00", align 1
@.str.31 = private unnamed_addr constant [109 x i8] c"credential value for %s contains carriage return\0AIf this is intended, set `credential.protectProtocol=false`\00", align 1
@.str.32 = private unnamed_addr constant [7 x i8] c"%s=%s\0A\00", align 1

; Function Attrs: nounwind uwtable
define internal void @credential_write_item(ptr noundef %0, ptr noundef %1, ptr noundef %2, ptr noundef %3, i32 noundef %4) #0 {
  %6 = alloca ptr, align 8
  %7 = alloca ptr, align 8
  %8 = alloca ptr, align 8
  %9 = alloca ptr, align 8
  %10 = alloca i32, align 4
  store ptr %0, ptr %6, align 8, !tbaa !4
  store ptr %1, ptr %7, align 8, !tbaa !30
  store ptr %2, ptr %8, align 8, !tbaa !32
  store ptr %3, ptr %9, align 8, !tbaa !32
  store i32 %4, ptr %10, align 4, !tbaa !27
  %11 = load ptr, ptr %9, align 8, !tbaa !32
  %12 = icmp ne ptr %11, null
  br i1 %12, label %18, label %13

13:                                               ; preds = %5
  %14 = load i32, ptr %10, align 4, !tbaa !27
  %15 = icmp ne i32 %14, 0
  br i1 %15, label %16, label %18

16:                                               ; preds = %13
  %17 = load ptr, ptr %8, align 8, !tbaa !32
  call void (ptr, i32, ptr, ...) @BUG_fl(ptr noundef @.str.28, i32 noundef 397, ptr noundef @.str.29, ptr noundef %17) #13
  unreachable

18:                                               ; preds = %13, %5
  %19 = load ptr, ptr %9, align 8, !tbaa !32
  %20 = icmp ne ptr %19, null
  br i1 %20, label %22, label %21

21:                                               ; preds = %18
  br label %47

22:                                               ; preds = %18
  %23 = load ptr, ptr %9, align 8, !tbaa !32
  %24 = call ptr @strchr(ptr noundef %23, i32 noundef 10) #11
  %25 = icmp ne ptr %24, null
  br i1 %25, label %26, label %28

26:                                               ; preds = %22
  %27 = load ptr, ptr %8, align 8, !tbaa !32
  call void (ptr, ...) @die(ptr noundef @.str.30, ptr noundef %27) #13
  unreachable

28:                                               ; preds = %22
  %29 = load ptr, ptr %6, align 8, !tbaa !4
  %30 = getelementptr inbounds nuw %struct.credential, ptr %29, i32 0, i32 4
  %31 = load i16, ptr %30, align 8
  %32 = lshr i16 %31, 9
  %33 = and i16 %32, 1
  %34 = zext i16 %33 to i32
  %35 = icmp ne i32 %34, 0
  br i1 %35, label %36, label %42

36:                                               ; preds = %28
  %37 = load ptr, ptr %9, align 8, !tbaa !32
  %38 = call ptr @strchr(ptr noundef %37, i32 noundef 13) #11
  %39 = icmp ne ptr %38, null
  br i1 %39, label %40, label %42

40:                                               ; preds = %36
  %41 = load ptr, ptr %8, align 8, !tbaa !32
  call void (ptr, ...) @die(ptr noundef @.str.31, ptr noundef %41) #13
  unreachable

42:                                               ; preds = %36, %28
  %43 = load ptr, ptr %7, align 8, !tbaa !30
  %44 = load ptr, ptr %8, align 8, !tbaa !32
  %45 = load ptr, ptr %9, align 8, !tbaa !32
  %46 = call i32 (ptr, ptr, ...) @fprintf(ptr noundef %43, ptr noundef @.str.32, ptr noundef %44, ptr noundef %45) #10
  br label %47

47:                                               ; preds = %42, %21
  ret void
}