; Function Attrs: nounwind uwtable
define internal fastcc void @credential_write_item(ptr noundef readonly captures(none) %0, ptr noundef captures(none) %1, ptr noundef %2, ptr noundef %3, i32 noundef range(i32 0, 2) %4) unnamed_addr #3 {
  %6 = icmp eq ptr %3, null
  %7 = icmp ne i32 %4, 0
  %or.cond = and i1 %6, %7
  br i1 %or.cond, label %8, label %9

8:                                                ; preds = %5
  tail call void (ptr, i32, ptr, ...) @BUG_fl(ptr noundef nonnull @.str.28, i32 noundef 397, ptr noundef nonnull @.str.29, ptr noundef %2) #22
  unreachable

9:                                                ; preds = %5
  br i1 %6, label %22, label %10

10:                                               ; preds = %9
  %11 = tail call ptr @strchr(ptr noundef nonnull dereferenceable(1) %3, i32 noundef 10) #20
  %.not12 = icmp eq ptr %11, null
  br i1 %.not12, label %13, label %12

12:                                               ; preds = %10
  tail call void (ptr, ...) @die(ptr noundef nonnull @.str.30, ptr noundef %2) #22
  unreachable

13:                                               ; preds = %10
  %14 = getelementptr inbounds nuw i8, ptr %0, i64 112
  %15 = load i16, ptr %14, align 8
  %16 = and i16 %15, 512
  %.not13 = icmp eq i16 %16, 0
  br i1 %.not13, label %20, label %17

17:                                               ; preds = %13
  %18 = tail call ptr @strchr(ptr noundef nonnull dereferenceable(1) %3, i32 noundef 13) #20
  %.not14 = icmp eq ptr %18, null
  br i1 %.not14, label %20, label %19

19:                                               ; preds = %17
  tail call void (ptr, ...) @die(ptr noundef nonnull @.str.31, ptr noundef %2) #22
  unreachable

20:                                               ; preds = %17, %13
  %21 = tail call i32 (ptr, ptr, ...) @fprintf(ptr noundef %1, ptr noundef nonnull @.str.32, ptr noundef %2, ptr noundef nonnull %3) #19
  br label %22

22:                                               ; preds = %9, %20
  ret void
}